; Function Attrs: mustprogress nofree norecurse nosync nounwind willreturn memory(argmem: read) uwtable
define hidden i32 @VP8LPredictor9_C(ptr readnone captures(none) %0, ptr noundef readonly captures(none) %1) #0 {
  %3 = load i32, ptr %1, align 4, !tbaa !3
  %4 = getelementptr inbounds nuw i8, ptr %1, i64 4
  %5 = load i32, ptr %4, align 4, !tbaa !3
  %6 = xor i32 %5, %3
  %7 = lshr i32 %6, 1
  %8 = and i32 %7, 2139062143
  %9 = and i32 %5, %3
  %10 = add i32 %8, %9
  ret i32 %10
}